(dp0
Vengine
p1
S'pdflatex'
p2
sVpackages
p3
c__builtin__
set
p4
((lp5
Vhyperref
p6
aVtitlesec
p7
aVfancyhdr
p8
aVinconsolata
p9
aVcantarell
p10
aVfontenc
p11
aVpalatino
p12
aVparskip
p13
atp14
Rp15
sVfiles_with_guttermarks
p16
g4
((lp17
S'syllabus.tex'
p18
atp19
Rp20
sVsynctex
p21
I01
s.